target datalayout = "e-m:e-p270:32:32-p271:32:32-p272:64:64-i64:64-i128:128-f80:128-n8:16:32:64-S128"
target triple = "x86_64-pc-linux-gnu"

%struct.clusterManagerNode = type { ptr, ptr, ptr, i32, i32, i64, i64, i64, i32, ptr, ptr, i32, [16384 x i8], i32, i32, ptr, ptr, ptr, i32, i32, float, i32 }

@stderr = external global ptr, align 8
@.str.353 = private unnamed_addr constant [139 x i8] c"[ERR] Invalid arguments: you need to pass either a valid address (ie. 120.0.0.1:7000) or space separated IP and port (ie. 120.0.0.1 7000)\0A\00", align 1

; Function Attrs: nounwind uwtable
define internal void @clusterManagerNodeResetSlots(ptr noundef %0) #0 {
  %2 = alloca ptr, align 8
  store ptr %0, ptr %2, align 8, !tbaa !88
  %3 = load ptr, ptr %2, align 8, !tbaa !88
  %4 = getelementptr inbounds nuw %struct.clusterManagerNode, ptr %3, i32 0, i32 12
  %5 = getelementptr inbounds [16384 x i8], ptr %4, i64 0, i64 0
  call void @llvm.memset.p0.i64(ptr align 4 %5, i8 0, i64 16384, i1 false)
  %6 = load ptr, ptr %2, align 8, !tbaa !88
  %7 = getelementptr inbounds nuw %struct.clusterManagerNode, ptr %6, i32 0, i32 13
  store i32 0, ptr %7, align 4, !tbaa !114
  ret void
}

; Function Attrs: inlinehint nounwind willreturn memory(read) uwtable
define available_externally i32 @atoi(ptr noundef nonnull %0) #14 {
  %2 = alloca ptr, align 8
  store ptr %0, ptr %2, align 8, !tbaa !5
  %3 = load ptr, ptr %2, align 8, !tbaa !5
  %4 = call i64 @strtol(ptr noundef %3, ptr noundef null, i32 noundef 10) #15
  %5 = trunc i64 %4 to i32
  ret i32 %5
}

; Function Attrs: nounwind uwtable
define internal i32 @parseClusterNodeAddress(ptr noundef %0, ptr noundef %1, ptr noundef %2, ptr noundef %3) #0 {
  %5 = alloca i32, align 4
  %6 = alloca ptr, align 8
  %7 = alloca ptr, align 8
  %8 = alloca ptr, align 8
  %9 = alloca ptr, align 8
  %10 = alloca ptr, align 8
  %11 = alloca i32, align 4
  store ptr %0, ptr %6, align 8, !tbaa !5
  store ptr %1, ptr %7, align 8, !tbaa !42
  store ptr %2, ptr %8, align 8, !tbaa !224
  store ptr %3, ptr %9, align 8, !tbaa !224
  call void @llvm.lifetime.start.p0(i64 8, ptr %10) #15
  %12 = load ptr, ptr %6, align 8, !tbaa !5
  %13 = call ptr @strrchr(ptr noundef %12, i32 noundef 64) #16
  store ptr %13, ptr %10, align 8, !tbaa !5
  %14 = load ptr, ptr %10, align 8, !tbaa !5
  %15 = icmp ne ptr %14, null
  br i1 %15, label %16, label %26

16:                                               ; preds = %4
  %17 = load ptr, ptr %10, align 8, !tbaa !5
  store i8 0, ptr %17, align 1, !tbaa !79
  %18 = load ptr, ptr %9, align 8, !tbaa !224
  %19 = icmp ne ptr %18, null
  br i1 %19, label %20, label %25

20:                                               ; preds = %16
  %21 = load ptr, ptr %10, align 8, !tbaa !5
  %22 = getelementptr inbounds i8, ptr %21, i64 1
  %23 = call i32 @atoi(ptr noundef %22) #16
  %24 = load ptr, ptr %9, align 8, !tbaa !224
  store i32 %23, ptr %24, align 4, !tbaa !10
  br label %25

25:                                               ; preds = %20, %16
  br label %26

26:                                               ; preds = %25, %4
  %27 = load ptr, ptr %6, align 8, !tbaa !5
  %28 = call ptr @strrchr(ptr noundef %27, i32 noundef 58) #16
  store ptr %28, ptr %10, align 8, !tbaa !5
  %29 = load ptr, ptr %10, align 8, !tbaa !5
  %30 = icmp ne ptr %29, null
  br i1 %30, label %31, label %39

31:                                               ; preds = %26
  %32 = load ptr, ptr %10, align 8, !tbaa !5
  store i8 0, ptr %32, align 1, !tbaa !79
  %33 = load ptr, ptr %6, align 8, !tbaa !5
  %34 = load ptr, ptr %7, align 8, !tbaa !42
  store ptr %33, ptr %34, align 8, !tbaa !5
  %35 = load ptr, ptr %10, align 8, !tbaa !5
  %36 = getelementptr inbounds nuw i8, ptr %35, i32 1
  store ptr %36, ptr %10, align 8, !tbaa !5
  %37 = call i32 @atoi(ptr noundef %36) #16
  %38 = load ptr, ptr %8, align 8, !tbaa !224
  store i32 %37, ptr %38, align 4, !tbaa !10
  br label %40

39:                                               ; preds = %26
  store i32 0, ptr %5, align 4
  store i32 1, ptr %11, align 4
  br label %41

40:                                               ; preds = %31
  store i32 1, ptr %5, align 4
  store i32 1, ptr %11, align 4
  br label %41

41:                                               ; preds = %40, %39
  call void @llvm.lifetime.end.p0(i64 8, ptr %10) #15
  %42 = load i32, ptr %5, align 4
  ret i32 %42
}

; Function Attrs: nounwind uwtable
define internal ptr @clusterManagerNewNode(ptr noundef %0, i32 noundef %1, i32 noundef %2) #0 {
  %4 = alloca ptr, align 8
  %5 = alloca i32, align 4
  %6 = alloca i32, align 4
  %7 = alloca ptr, align 8
  store ptr %0, ptr %4, align 8, !tbaa !5
  store i32 %1, ptr %5, align 4, !tbaa !10
  store i32 %2, ptr %6, align 4, !tbaa !10
  call void @llvm.lifetime.start.p0(i64 8, ptr %7) #15
  %8 = call noalias ptr @zmalloc(i64 noundef 16520) #18
  store ptr %8, ptr %7, align 8, !tbaa !88
  %9 = load ptr, ptr %7, align 8, !tbaa !88
  %10 = getelementptr inbounds nuw %struct.clusterManagerNode, ptr %9, i32 0, i32 0
  store ptr null, ptr %10, align 8, !tbaa !126
  %11 = load ptr, ptr %7, align 8, !tbaa !88
  %12 = getelementptr inbounds nuw %struct.clusterManagerNode, ptr %11, i32 0, i32 1
  store ptr null, ptr %12, align 8, !tbaa !121
  %13 = load ptr, ptr %4, align 8, !tbaa !5
  %14 = load ptr, ptr %7, align 8, !tbaa !88
  %15 = getelementptr inbounds nuw %struct.clusterManagerNode, ptr %14, i32 0, i32 2
  store ptr %13, ptr %15, align 8, !tbaa !90
  %16 = load i32, ptr %5, align 4, !tbaa !10
  %17 = load ptr, ptr %7, align 8, !tbaa !88
  %18 = getelementptr inbounds nuw %struct.clusterManagerNode, ptr %17, i32 0, i32 3
  store i32 %16, ptr %18, align 8, !tbaa !93
  %19 = load i32, ptr %6, align 4, !tbaa !10
  %20 = icmp ne i32 %19, 0
  br i1 %20, label %21, label %23

21:                                               ; preds = %3
  %22 = load i32, ptr %6, align 4, !tbaa !10
  br label %26

23:                                               ; preds = %3
  %24 = load i32, ptr %5, align 4, !tbaa !10
  %25 = add nsw i32 %24, 10000
  br label %26

26:                                               ; preds = %23, %21
  %27 = phi i32 [ %22, %21 ], [ %25, %23 ]
  %28 = load ptr, ptr %7, align 8, !tbaa !88
  %29 = getelementptr inbounds nuw %struct.clusterManagerNode, ptr %28, i32 0, i32 4
  store i32 %27, ptr %29, align 4, !tbaa !131
  %30 = load ptr, ptr %7, align 8, !tbaa !88
  %31 = getelementptr inbounds nuw %struct.clusterManagerNode, ptr %30, i32 0, i32 5
  store i64 0, ptr %31, align 8, !tbaa !406
  %32 = load ptr, ptr %7, align 8, !tbaa !88
  %33 = getelementptr inbounds nuw %struct.clusterManagerNode, ptr %32, i32 0, i32 6
  store i64 0, ptr %33, align 8, !tbaa !407
  %34 = load ptr, ptr %7, align 8, !tbaa !88
  %35 = getelementptr inbounds nuw %struct.clusterManagerNode, ptr %34, i32 0, i32 7
  store i64 0, ptr %35, align 8, !tbaa !408
  %36 = load ptr, ptr %7, align 8, !tbaa !88
  %37 = getelementptr inbounds nuw %struct.clusterManagerNode, ptr %36, i32 0, i32 8
  store i32 0, ptr %37, align 8, !tbaa !148
  %38 = load ptr, ptr %7, align 8, !tbaa !88
  %39 = getelementptr inbounds nuw %struct.clusterManagerNode, ptr %38, i32 0, i32 9
  store ptr null, ptr %39, align 8, !tbaa !409
  %40 = load ptr, ptr %7, align 8, !tbaa !88
  %41 = getelementptr inbounds nuw %struct.clusterManagerNode, ptr %40, i32 0, i32 10
  store ptr null, ptr %41, align 8, !tbaa !120
  %42 = load ptr, ptr %7, align 8, !tbaa !88
  %43 = getelementptr inbounds nuw %struct.clusterManagerNode, ptr %42, i32 0, i32 11
  store i32 0, ptr %43, align 8, !tbaa !116
  %44 = load ptr, ptr %7, align 8, !tbaa !88
  %45 = getelementptr inbounds nuw %struct.clusterManagerNode, ptr %44, i32 0, i32 15
  store ptr null, ptr %45, align 8, !tbaa !410
  %46 = load ptr, ptr %7, align 8, !tbaa !88
  %47 = getelementptr inbounds nuw %struct.clusterManagerNode, ptr %46, i32 0, i32 16
  store ptr null, ptr %47, align 8, !tbaa !411
  %48 = load ptr, ptr %7, align 8, !tbaa !88
  %49 = getelementptr inbounds nuw %struct.clusterManagerNode, ptr %48, i32 0, i32 17
  store ptr null, ptr %49, align 8, !tbaa !412
  %50 = load ptr, ptr %7, align 8, !tbaa !88
  %51 = getelementptr inbounds nuw %struct.clusterManagerNode, ptr %50, i32 0, i32 18
  store i32 0, ptr %51, align 8, !tbaa !413
  %52 = load ptr, ptr %7, align 8, !tbaa !88
  %53 = getelementptr inbounds nuw %struct.clusterManagerNode, ptr %52, i32 0, i32 19
  store i32 0, ptr %53, align 4, !tbaa !414
  %54 = load ptr, ptr %7, align 8, !tbaa !88
  %55 = getelementptr inbounds nuw %struct.clusterManagerNode, ptr %54, i32 0, i32 14
  store i32 0, ptr %55, align 8, !tbaa !415
  %56 = load ptr, ptr %7, align 8, !tbaa !88
  %57 = getelementptr inbounds nuw %struct.clusterManagerNode, ptr %56, i32 0, i32 20
  store float 1.000000e+00, ptr %57, align 8, !tbaa !159
  %58 = load ptr, ptr %7, align 8, !tbaa !88
  %59 = getelementptr inbounds nuw %struct.clusterManagerNode, ptr %58, i32 0, i32 21
  store i32 0, ptr %59, align 4, !tbaa !163
  %60 = load ptr, ptr %7, align 8, !tbaa !88
  call void @clusterManagerNodeResetSlots(ptr noundef %60)
  %61 = load ptr, ptr %7, align 8, !tbaa !88
  call void @llvm.lifetime.end.p0(i64 8, ptr %7) #15
  ret ptr %61
}

; Function Attrs: nounwind uwtable
define internal i32 @getClusterHostFromCmdArgs(i32 noundef %0, ptr noundef %1, ptr noundef %2, ptr noundef %3) #0 {
  %5 = alloca i32, align 4
  %6 = alloca i32, align 4
  %7 = alloca ptr, align 8
  %8 = alloca ptr, align 8
  %9 = alloca ptr, align 8
  %10 = alloca i32, align 4
  %11 = alloca ptr, align 8
  %12 = alloca ptr, align 8
  %13 = alloca i32, align 4
  store i32 %0, ptr %6, align 4, !tbaa !10
  store ptr %1, ptr %7, align 8, !tbaa !42
  store ptr %2, ptr %8, align 8, !tbaa !42
  store ptr %3, ptr %9, align 8, !tbaa !224
  call void @llvm.lifetime.start.p0(i64 4, ptr %10) #15
  store i32 0, ptr %10, align 4, !tbaa !10
  call void @llvm.lifetime.start.p0(i64 8, ptr %11) #15
  store ptr null, ptr %11, align 8, !tbaa !5
  %14 = load i32, ptr %6, align 4, !tbaa !10
  %15 = icmp eq i32 %14, 1
  br i1 %15, label %16, label %28

16:                                               ; preds = %4
  call void @llvm.lifetime.start.p0(i64 8, ptr %12) #15
  %17 = load ptr, ptr %7, align 8, !tbaa !42
  %18 = getelementptr inbounds ptr, ptr %17, i64 0
  %19 = load ptr, ptr %18, align 8, !tbaa !5
  store ptr %19, ptr %12, align 8, !tbaa !5
  %20 = load ptr, ptr %12, align 8, !tbaa !5
  %21 = call i32 @parseClusterNodeAddress(ptr noundef %20, ptr noundef %11, ptr noundef %10, ptr noundef null)
  %22 = icmp ne i32 %21, 0
  br i1 %22, label %24, label %23

23:                                               ; preds = %16
  store i32 0, ptr %5, align 4
  store i32 1, ptr %13, align 4
  br label %25

24:                                               ; preds = %16
  store i32 0, ptr %13, align 4
  br label %25

25:                                               ; preds = %24, %23
  call void @llvm.lifetime.end.p0(i64 8, ptr %12) #15
  %26 = load i32, ptr %13, align 4
  switch i32 %26, label %49 [
    i32 0, label %27
  ]

27:                                               ; preds = %25
  br label %36

28:                                               ; preds = %4
  %29 = load ptr, ptr %7, align 8, !tbaa !42
  %30 = getelementptr inbounds ptr, ptr %29, i64 0
  %31 = load ptr, ptr %30, align 8, !tbaa !5
  store ptr %31, ptr %11, align 8, !tbaa !5
  %32 = load ptr, ptr %7, align 8, !tbaa !42
  %33 = getelementptr inbounds ptr, ptr %32, i64 1
  %34 = load ptr, ptr %33, align 8, !tbaa !5
  %35 = call i32 @atoi(ptr noundef %34) #16
  store i32 %35, ptr %10, align 4, !tbaa !10
  br label %36

36:                                               ; preds = %28, %27
  %37 = load ptr, ptr %11, align 8, !tbaa !5
  %38 = icmp ne ptr %37, null
  br i1 %38, label %39, label %42

39:                                               ; preds = %36
  %40 = load i32, ptr %10, align 4, !tbaa !10
  %41 = icmp ne i32 %40, 0
  br i1 %41, label %43, label %42

42:                                               ; preds = %39, %36
  store i32 0, ptr %5, align 4
  store i32 1, ptr %13, align 4
  br label %49

43:                                               ; preds = %39
  %44 = load ptr, ptr %11, align 8, !tbaa !5
  %45 = load ptr, ptr %8, align 8, !tbaa !42
  store ptr %44, ptr %45, align 8, !tbaa !5
  %46 = load i32, ptr %10, align 4, !tbaa !10
  %47 = load ptr, ptr %9, align 8, !tbaa !224
  store i32 %46, ptr %47, align 4, !tbaa !10
  br label %48

48:                                               ; preds = %43
  store i32 1, ptr %5, align 4
  store i32 1, ptr %13, align 4
  br label %49

49:                                               ; preds = %48, %42, %25
  call void @llvm.lifetime.end.p0(i64 8, ptr %11) #15
  call void @llvm.lifetime.end.p0(i64 4, ptr %10) #15
  %50 = load i32, ptr %5, align 4
  ret i32 %50
}

; Function Attrs: nounwind uwtable
define internal i32 @clusterManagerCommandInfo(i32 noundef %0, ptr noundef %1) #0 {
  %3 = alloca i32, align 4
  %4 = alloca i32, align 4
  %5 = alloca ptr, align 8
  %6 = alloca i32, align 4
  %7 = alloca ptr, align 8
  %8 = alloca ptr, align 8
  %9 = alloca i32, align 4
  store i32 %0, ptr %4, align 4, !tbaa !10
  store ptr %1, ptr %5, align 8, !tbaa !42
  call void @llvm.lifetime.start.p0(i64 4, ptr %6) #15
  store i32 0, ptr %6, align 4, !tbaa !10
  call void @llvm.lifetime.start.p0(i64 8, ptr %7) #15
  store ptr null, ptr %7, align 8, !tbaa !5
  %10 = load i32, ptr %4, align 4, !tbaa !10
  %11 = load ptr, ptr %5, align 8, !tbaa !42
  %12 = call i32 @getClusterHostFromCmdArgs(i32 noundef %10, ptr noundef %11, ptr noundef %7, ptr noundef %6)
  %13 = icmp ne i32 %12, 0
  br i1 %13, label %15, label %14

14:                                               ; preds = %2
  br label %24

15:                                               ; preds = %2
  %16 = load ptr, ptr %7, align 8, !tbaa !5
  %17 = load i32, ptr %6, align 4, !tbaa !10
  %18 = call ptr @clusterManagerNewNode(ptr noundef %16, i32 noundef %17, i32 noundef 0)
  store ptr %18, ptr %8, align 8, !tbaa !88
  %19 = load ptr, ptr %8, align 8, !tbaa !88
  %20 = call i32 @clusterManagerLoadInfoFromNode(ptr noundef %19)
  %21 = icmp ne i32 %20, 0
  br i1 %21, label %23, label %22

22:                                               ; preds = %15
  store i32 0, ptr %3, align 4
  store i32 1, ptr %9, align 4
  br label %27

23:                                               ; preds = %15
  call void @clusterManagerShowClusterInfo()
  store i32 1, ptr %3, align 4
  store i32 1, ptr %9, align 4
  br label %27

24:                                               ; preds = %14
  %25 = load ptr, ptr @stderr, align 8, !tbaa !12
  %26 = call i32 (ptr, ptr, ...) @fprintf(ptr noundef %25, ptr noundef @.str.353) #15
  store i32 0, ptr %3, align 4
  store i32 1, ptr %9, align 4
  br label %27

27:                                               ; preds = %24, %23, %22
  call void @llvm.lifetime.end.p0(i64 8, ptr %7) #15
  call void @llvm.lifetime.end.p0(i64 4, ptr %6) #15
  %28 = load i32, ptr %3, align 4
  ret i32 %28
}